; ModuleID = '20/34.c'
source_filename = "20/34.c"
target datalayout = "e-m:e-p270:32:32-p271:32:32-p272:64:64-i64:64-f80:128-n8:16:32:64-S128"
target triple = "x86_64-pc-linux-gnu"

@.str = private unnamed_addr constant [3 x i8] c"%s\00", align 1
@.str.1 = private unnamed_addr constant [4 x i8] c"%s\0A\00", align 1

; Function Attrs: noinline nounwind uwtable
define dso_local void @main() #0 {
  %1 = alloca [14 x i8], align 1
  %2 = alloca [3 x i8], align 1
  br label %3

3:                                                ; preds = %7, %0
  %4 = getelementptr inbounds [14 x i8], [14 x i8]* %1, i64 0, i64 0
  %5 = call i32 (i8*, ...) @__isoc99_scanf(i8* getelementptr inbounds ([3 x i8], [3 x i8]* @.str, i64 0, i64 0), i8* %4)
  %6 = icmp ne i32 %5, -1
  br i1 %6, label %7, label %12

7:                                                ; preds = %3
  %8 = getelementptr inbounds [3 x i8], [3 x i8]* %2, i64 0, i64 0
  %9 = call i32 (i8*, ...) @__isoc99_scanf(i8* getelementptr inbounds ([3 x i8], [3 x i8]* @.str, i64 0, i64 0), i8* %8)
  %10 = getelementptr inbounds [14 x i8], [14 x i8]* %1, i64 0, i64 0
  %11 = getelementptr inbounds [3 x i8], [3 x i8]* %2, i64 0, i64 0
  call void @insert(i8* %10, i8* %11)
  br label %3

12:                                               ; preds = %3
  ret void
}

declare dso_local i32 @__isoc99_scanf(i8*, ...) #1

; Function Attrs: noinline nounwind uwtable
define dso_local void @insert(i8* %0, i8* %1) #0 {
  %3 = alloca i8*, align 8
  %4 = alloca i8*, align 8
  %5 = alloca i32, align 4
  %6 = alloca i32, align 4
  %7 = alloca i32, align 4
  %8 = alloca i32, align 4
  %9 = alloca i32, align 4
  %10 = alloca [14 x i8], align 1
  store i8* %0, i8** %3, align 8
  store i8* %1, i8** %4, align 8
  store i32 0, i32* %6, align 4
  store i32 1, i32* %7, align 4
  %11 = bitcast [14 x i8]* %10 to i8*
  call void @llvm.memset.p0i8.i64(i8* align 1 %11, i8 0, i64 14, i1 false)
  %12 = load i8*, i8** %3, align 8
  %13 = call i64 @strlen(i8* %12) #5
  %14 = trunc i64 %13 to i32
  store i32 %14, i32* %8, align 4
  %15 = load i8*, i8** %4, align 8
  %16 = call i64 @strlen(i8* %15) #5
  %17 = trunc i64 %16 to i32
  store i32 %17, i32* %9, align 4
  store i32 1, i32* %5, align 4
  br label %18

18:                                               ; preds = %41, %2
  %19 = load i32, i32* %5, align 4
  %20 = load i32, i32* %8, align 4
  %21 = icmp slt i32 %19, %20
  br i1 %21, label %22, label %44

22:                                               ; preds = %18
  %23 = load i8*, i8** %3, align 8
  %24 = load i32, i32* %5, align 4
  %25 = sext i32 %24 to i64
  %26 = getelementptr inbounds i8, i8* %23, i64 %25
  %27 = load i8, i8* %26, align 1
  %28 = sext i8 %27 to i32
  %29 = load i8*, i8** %3, align 8
  %30 = load i32, i32* %7, align 4
  %31 = sext i32 %30 to i64
  %32 = getelementptr inbounds i8, i8* %29, i64 %31
  %33 = getelementptr inbounds i8, i8* %32, i64 -1
  %34 = load i8, i8* %33, align 1
  %35 = sext i8 %34 to i32
  %36 = icmp sgt i32 %28, %35
  br i1 %36, label %37, label %40

37:                                               ; preds = %22
  %38 = load i32, i32* %5, align 4
  %39 = add nsw i32 %38, 1
  store i32 %39, i32* %7, align 4
  br label %40

40:                                               ; preds = %37, %22
  br label %41

41:                                               ; preds = %40
  %42 = load i32, i32* %5, align 4
  %43 = add nsw i32 %42, 1
  store i32 %43, i32* %5, align 4
  br label %18

44:                                               ; preds = %18
  store i32 0, i32* %5, align 4
  br label %45

45:                                               ; preds = %70, %44
  %46 = load i32, i32* %5, align 4
  %47 = load i32, i32* %8, align 4
  %48 = load i32, i32* %7, align 4
  %49 = sub nsw i32 %47, %48
  %50 = icmp slt i32 %46, %49
  br i1 %50, label %51, label %73

51:                                               ; preds = %45
  %52 = load i8*, i8** %3, align 8
  %53 = load i32, i32* %7, align 4
  %54 = sext i32 %53 to i64
  %55 = getelementptr inbounds i8, i8* %52, i64 %54
  %56 = load i32, i32* %5, align 4
  %57 = sext i32 %56 to i64
  %58 = getelementptr inbounds i8, i8* %55, i64 %57
  %59 = load i8, i8* %58, align 1
  %60 = load i32, i32* %5, align 4
  %61 = sext i32 %60 to i64
  %62 = getelementptr inbounds [14 x i8], [14 x i8]* %10, i64 0, i64 %61
  store i8 %59, i8* %62, align 1
  %63 = load i8*, i8** %3, align 8
  %64 = load i32, i32* %7, align 4
  %65 = sext i32 %64 to i64
  %66 = getelementptr inbounds i8, i8* %63, i64 %65
  %67 = load i32, i32* %5, align 4
  %68 = sext i32 %67 to i64
  %69 = getelementptr inbounds i8, i8* %66, i64 %68
  store i8 0, i8* %69, align 1
  br label %70

70:                                               ; preds = %51
  %71 = load i32, i32* %5, align 4
  %72 = add nsw i32 %71, 1
  store i32 %72, i32* %5, align 4
  br label %45

73:                                               ; preds = %45
  %74 = load i8*, i8** %3, align 8
  %75 = load i8*, i8** %4, align 8
  %76 = call i8* @strcat(i8* %74, i8* %75) #6
  %77 = load i8*, i8** %3, align 8
  %78 = getelementptr inbounds [14 x i8], [14 x i8]* %10, i64 0, i64 0
  %79 = call i8* @strcat(i8* %77, i8* %78) #6
  %80 = load i8*, i8** %3, align 8
  %81 = call i32 (i8*, ...) @printf(i8* getelementptr inbounds ([4 x i8], [4 x i8]* @.str.1, i64 0, i64 0), i8* %80)
  ret void
}

; Function Attrs: argmemonly nounwind willreturn
declare void @llvm.memset.p0i8.i64(i8* nocapture writeonly, i8, i64, i1 immarg) #2

; Function Attrs: nounwind readonly
declare dso_local i64 @strlen(i8*) #3

; Function Attrs: nounwind
declare dso_local i8* @strcat(i8*, i8*) #4

declare dso_local i32 @printf(i8*, ...) #1


!llvm.module.flags = !{!0}
!llvm.ident = !{!1}

!0 = !{i32 1, !"wchar_size", i32 4}
!1 = !{!"clang version 10.0.0-4ubuntu1 "}
